; Function Attrs: mustprogress uwtable
define void @_ZNK10OpenSubdiv6v3_6_03Bfr11FaceSurface35sharpenBySdcFVarLinearInterpolationEPNS1_16FaceVertexSubsetEPKiRKS3_RKNS1_10FaceVertexE(ptr nocapture noundef nonnull readonly align 8 dereferenceable(143) %0, ptr noundef %1, ptr nocapture noundef readonly %2, ptr nocapture noundef nonnull readonly align 4 dereferenceable(12) %3, ptr noundef nonnull align 8 dereferenceable(224) %4) local_unnamed_addr #0 align 2 personality ptr @__gxx_personality_v0 {
  %6 = load ptr, ptr %0, align 8
  %7 = getelementptr inbounds i8, ptr %6, i64 5
  %8 = load i8, ptr %7, align 1
  switch i8 %8, label %.critedge [
    i8 4, label %.critedge31
    i8 1, label %62
    i8 2, label %9
    i8 3, label %30
  ]

9:                                                ; preds = %5
  %10 = getelementptr inbounds nuw i8, ptr %1, i64 6
  %11 = load i16, ptr %10, align 2
  %12 = sext i16 %11 to i32
  %13 = icmp eq i16 %11, 1
  br i1 %13, label %.critedge31, label %14

14:                                               ; preds = %9
  %15 = tail call noundef zeroext i1 @_ZN10OpenSubdiv6v3_6_03Bfr9fvar_plus25hasMoreThanTwoFVarSubsetsERKNS1_10FaceVertexEPKi(ptr noundef nonnull align 8 dereferenceable(224) %4, ptr noundef %2)
  br i1 %15, label %.critedge31, label %16

16:                                               ; preds = %14
  %17 = getelementptr inbounds nuw i8, ptr %4, i64 2
  %18 = load i16, ptr %17, align 2
  %19 = sext i16 %18 to i32
  %20 = sub nsw i32 %19, %12
  %21 = icmp sgt i32 %20, 1
  br i1 %21, label %22, label %.critedge

22:                                               ; preds = %16
  %23 = getelementptr inbounds nuw i8, ptr %4, i64 152
  %24 = load i16, ptr %23, align 8, !noalias !15
  %25 = and i16 %24, 36
  %.not.i = icmp eq i16 %25, 0
  br i1 %.not.i, label %.critedge, label %_ZN10OpenSubdiv6v3_6_03Bfr9fvar_plus21hasDependentSharpnessERKNS1_10FaceVertexERKNS1_16FaceVertexSubsetE.exit

_ZN10OpenSubdiv6v3_6_03Bfr9fvar_plus21hasDependentSharpnessERKNS1_10FaceVertexERKNS1_16FaceVertexSubsetE.exit: ; preds = %22
  %26 = load i16, ptr %1, align 4, !noalias !18
  %27 = and i16 %26, 36
  %.not18.i = icmp eq i16 %27, 0
  br i1 %.not18.i, label %28, label %.critedge

28:                                               ; preds = %_ZN10OpenSubdiv6v3_6_03Bfr9fvar_plus21hasDependentSharpnessERKNS1_10FaceVertexERKNS1_16FaceVertexSubsetE.exit
  %29 = tail call noundef float @_ZN10OpenSubdiv6v3_6_03Bfr9fvar_plus21getDependentSharpnessERKNS1_10FaceVertexERKNS1_16FaceVertexSubsetE(ptr noundef nonnull align 8 dereferenceable(224) %4, ptr noundef nonnull align 4 dereferenceable(12) %1)
  tail call void @_ZNK10OpenSubdiv6v3_6_03Bfr10FaceVertex13SharpenSubsetEPNS1_16FaceVertexSubsetEf(ptr noundef nonnull align 8 dereferenceable(224) %4, ptr noundef nonnull %1, float noundef %29)
  br label %.critedge

30:                                               ; preds = %5
  %31 = getelementptr inbounds nuw i8, ptr %1, i64 6
  %32 = load i16, ptr %31, align 2
  %33 = sext i16 %32 to i32
  %34 = icmp eq i16 %32, 1
  br i1 %34, label %.critedge31, label %35

35:                                               ; preds = %30
  %36 = tail call noundef zeroext i1 @_ZN10OpenSubdiv6v3_6_03Bfr9fvar_plus25hasMoreThanTwoFVarSubsetsERKNS1_10FaceVertexEPKi(ptr noundef nonnull align 8 dereferenceable(224) %4, ptr noundef %2)
  br i1 %36, label %.critedge31, label %37

37:                                               ; preds = %35
  %38 = getelementptr inbounds nuw i8, ptr %3, i64 6
  %39 = load i16, ptr %38, align 2
  %40 = icmp eq i16 %39, %32
  br i1 %40, label %41, label %44

41:                                               ; preds = %37
  %42 = load i16, ptr %3, align 4
  %43 = and i16 %42, 1
  %.not = icmp eq i16 %43, 0
  br i1 %.not, label %.critedge31, label %.critedge

44:                                               ; preds = %37
  %45 = sext i16 %39 to i32
  %46 = sub nsw i32 %45, %33
  %47 = icmp eq i32 %46, 1
  br i1 %47, label %.critedge31, label %48

48:                                               ; preds = %44
  %49 = getelementptr inbounds nuw i8, ptr %4, i64 2
  %50 = load i16, ptr %49, align 2
  %51 = sext i16 %50 to i32
  %52 = sub nsw i32 %51, %33
  %53 = icmp sgt i32 %52, 1
  br i1 %53, label %54, label %.critedge

54:                                               ; preds = %48
  %55 = getelementptr inbounds nuw i8, ptr %4, i64 152
  %56 = load i16, ptr %55, align 8, !noalias !21
  %57 = and i16 %56, 36
  %.not.i32 = icmp eq i16 %57, 0
  br i1 %.not.i32, label %.critedge, label %_ZN10OpenSubdiv6v3_6_03Bfr9fvar_plus21hasDependentSharpnessERKNS1_10FaceVertexERKNS1_16FaceVertexSubsetE.exit35

_ZN10OpenSubdiv6v3_6_03Bfr9fvar_plus21hasDependentSharpnessERKNS1_10FaceVertexERKNS1_16FaceVertexSubsetE.exit35: ; preds = %54
  %58 = load i16, ptr %1, align 4, !noalias !24
  %59 = and i16 %58, 36
  %.not18.i34 = icmp eq i16 %59, 0
  br i1 %.not18.i34, label %60, label %.critedge

60:                                               ; preds = %_ZN10OpenSubdiv6v3_6_03Bfr9fvar_plus21hasDependentSharpnessERKNS1_10FaceVertexERKNS1_16FaceVertexSubsetE.exit35
  %61 = tail call noundef float @_ZN10OpenSubdiv6v3_6_03Bfr9fvar_plus21getDependentSharpnessERKNS1_10FaceVertexERKNS1_16FaceVertexSubsetE(ptr noundef nonnull align 8 dereferenceable(224) %4, ptr noundef nonnull align 4 dereferenceable(12) %1)
  tail call void @_ZNK10OpenSubdiv6v3_6_03Bfr10FaceVertex13SharpenSubsetEPNS1_16FaceVertexSubsetEf(ptr noundef nonnull align 8 dereferenceable(224) %4, ptr noundef nonnull %1, float noundef %61)
  br label %.critedge

62:                                               ; preds = %5
  %63 = getelementptr inbounds nuw i8, ptr %1, i64 6
  %64 = load i16, ptr %63, align 2
  %65 = icmp eq i16 %64, 1
  br i1 %65, label %.critedge31, label %.critedge

.critedge31:                                      ; preds = %30, %9, %14, %35, %41, %44, %5, %62
  tail call void @_ZNK10OpenSubdiv6v3_6_03Bfr10FaceVertex13SharpenSubsetEPNS1_16FaceVertexSubsetE(ptr noundef nonnull align 8 dereferenceable(224) %4, ptr noundef %1)
  br label %.critedge

.critedge:                                        ; preds = %54, %48, %22, %16, %_ZN10OpenSubdiv6v3_6_03Bfr9fvar_plus21hasDependentSharpnessERKNS1_10FaceVertexERKNS1_16FaceVertexSubsetE.exit, %28, %_ZN10OpenSubdiv6v3_6_03Bfr9fvar_plus21hasDependentSharpnessERKNS1_10FaceVertexERKNS1_16FaceVertexSubsetE.exit35, %60, %41, %5, %.critedge31, %62
  ret void
}